; Function Attrs: nounwind uwtable
define internal noundef ptr @warnings_acquire_lock(ptr readnone captures(none) %0, ptr readnone captures(none) %1) #0 {
  %3 = tail call align 8 ptr @llvm.threadlocal.address.p0(ptr align 8 @_Py_tss_tstate)
  %4 = load ptr, ptr %3, align 8, !tbaa !27
  %5 = getelementptr inbounds nuw i8, ptr %4, i64 16
  %6 = load ptr, ptr %5, align 8, !tbaa !29
  %7 = icmp eq ptr %6, null
  br i1 %7, label %get_current_interp.exit.thread.i, label %get_current_interp.exit.i

get_current_interp.exit.thread.i:                 ; preds = %2
  %8 = load ptr, ptr @PyExc_RuntimeError, align 8, !tbaa !14
  tail call void @PyErr_SetString(ptr noundef %8, ptr noundef nonnull @.str.7) #7
  br label %warnings_acquire_lock_impl.exit

get_current_interp.exit.i:                        ; preds = %2
  %9 = getelementptr inbounds nuw i8, ptr %6, i64 10696
  tail call void @_PyRecursiveMutex_Lock(ptr noundef nonnull %9) #7
  br label %warnings_acquire_lock_impl.exit

warnings_acquire_lock_impl.exit:                  ; preds = %get_current_interp.exit.thread.i, %get_current_interp.exit.i
  %.0.i = phi ptr [ @_Py_NoneStruct, %get_current_interp.exit.i ], [ null, %get_current_interp.exit.thread.i ]
  ret ptr %.0.i
}